#include <math.h>
#include <stdio.h>
#include <stdlib.h>
#include <string.h>

int main()
{ double a,b,c,d,jiao;int fanhui;
  double mianji(double aa,double bb,double cc,double dd,double jiaojiao);
  scanf("%lf\n%lf\n%lf\n%lf\n%lf",&a,&b,&c,&d,&jiao);
  c=mianji(a,b,c,d,jiao);
  if(c==0)printf("Invalid input");
  else printf("%.4f",c);
  getchar();
  getchar();
}
double mianji(double aa,double bb,double cc,double dd,double jiaojiao)
{ double s,ban,panduan,fanhui;
  ban=(jiaojiao*0.01745329)/2.0000;
  s=(aa+bb+cc+dd)/2.0000;
  panduan=(s-aa)*(s-bb)*(s-cc)*(s-dd)-aa*bb*cc*dd*cos(ban)*cos(ban);
  if(panduan>0)fanhui=sqrt(panduan);
  else fanhui=0;
  return fanhui;}